target datalayout = "e-m:e-p270:32:32-p271:32:32-p272:64:64-i64:64-i128:128-f80:128-n8:16:32:64-S128"
target triple = "x86_64-pc-linux-gnu"

%class.rational = type { %class.mpq }
%class.mpq = type { %class.mpz, %class.mpz }
%class.mpz = type { i32, i8, ptr }
%class.svector.25 = type { %class.vector.26 }
%class.vector.26 = type { ptr }
%"struct.nla::common" = type { ptr, %"class.nla::nex_creator" }
%"class.nla::nex_creator" = type { %class.ptr_vector, %"class.std::unordered_map", %"class.std::unordered_map.2", %class.svector, %"class.nla::nex_creator::mul_factory" }
%class.ptr_vector = type { %class.vector }
%class.vector = type { ptr }
%"class.std::unordered_map" = type { %"class.std::_Hashtable" }
%"class.std::_Hashtable" = type { ptr, i64, %"struct.std::__detail::_Hash_node_base", i64, %"struct.std::__detail::_Prime_rehash_policy", ptr }
%"struct.std::__detail::_Hash_node_base" = type { ptr }
%"struct.std::__detail::_Prime_rehash_policy" = type { float, i64 }
%"class.std::unordered_map.2" = type { %"class.std::_Hashtable.3" }
%"class.std::_Hashtable.3" = type { ptr, i64, %"struct.std::__detail::_Hash_node_base", i64, %"struct.std::__detail::_Prime_rehash_policy", ptr }
%"class.nla::nex_creator::mul_factory" = type { ptr, %class.rational, %class.vector.17 }
%class.vector.17 = type { ptr }
%class.svector = type { %class.vector.16 }
%class.vector.16 = type { ptr }
%"struct.nla::factorization_factory_imp" = type { %"struct.nla::factorization_factory", ptr, ptr, ptr }
%"struct.nla::factorization_factory" = type { ptr, ptr, ptr }
%"struct.nla::const_iterator_mon" = type { %class.svector.25, ptr, i8, i32 }
%"class.nla::factorization" = type { %class.svector.83, ptr }
%class.svector.83 = type { %class.vector.84 }
%class.vector.84 = type { ptr }

; Function Attrs: mustprogress nounwind uwtable
define linkonce_odr hidden noundef i32 @_ZNK6vectorIN3nla6factorELb0EjE4sizeEv(ptr noundef nonnull align 8 dereferenceable(8) %0) #4 comdat align 2 {
  %2 = alloca i32, align 4
  %3 = alloca ptr, align 8
  store ptr %0, ptr %3, align 8, !tbaa !331
  %4 = load ptr, ptr %3, align 8
  %5 = getelementptr inbounds nuw %class.vector.84, ptr %4, i32 0, i32 0
  %6 = load ptr, ptr %5, align 8, !tbaa !333
  %7 = icmp eq ptr %6, null
  br i1 %7, label %8, label %9

8:                                                ; preds = %1
  store i32 0, ptr %2, align 4
  br label %14

9:                                                ; preds = %1
  %10 = getelementptr inbounds nuw %class.vector.84, ptr %4, i32 0, i32 0
  %11 = load ptr, ptr %10, align 8, !tbaa !333
  %12 = getelementptr inbounds i32, ptr %11, i64 -1
  %13 = load i32, ptr %12, align 4, !tbaa !8
  store i32 %13, ptr %2, align 4
  br label %14

14:                                               ; preds = %9, %8
  %15 = load i32, ptr %2, align 4
  ret i32 %15
}

; Function Attrs: mustprogress nounwind uwtable
define linkonce_odr hidden void @_ZN3nla21factorization_factoryD2Ev(ptr noundef nonnull align 8 dereferenceable(24) %0) unnamed_addr #4 comdat align 2 {
  %2 = alloca ptr, align 8
  store ptr %0, ptr %2, align 8, !tbaa !69
  ret void
}

; Function Attrs: mustprogress nounwind uwtable
define linkonce_odr hidden noundef nonnull align 8 dereferenceable(34) ptr @_ZNK3nla13factorization3monEv(ptr noundef nonnull align 8 dereferenceable(16) %0) #4 comdat align 2 {
  %2 = alloca ptr, align 8
  store ptr %0, ptr %2, align 8, !tbaa !79
  %3 = load ptr, ptr %2, align 8
  %4 = getelementptr inbounds nuw %"class.nla::factorization", ptr %3, i32 0, i32 1
  %5 = load ptr, ptr %4, align 8, !tbaa !81
  ret ptr %5
}

; Function Attrs: mustprogress nounwind uwtable
define linkonce_odr hidden noundef zeroext i1 @_ZNK3nla13factorization6is_monEv(ptr noundef nonnull align 8 dereferenceable(16) %0) #4 comdat align 2 {
  %2 = alloca ptr, align 8
  store ptr %0, ptr %2, align 8, !tbaa !79
  %3 = load ptr, ptr %2, align 8
  %4 = getelementptr inbounds nuw %"class.nla::factorization", ptr %3, i32 0, i32 1
  %5 = load ptr, ptr %4, align 8, !tbaa !81
  %6 = icmp ne ptr %5, null
  ret i1 %6
}

; Function Attrs: mustprogress uwtable
define linkonce_odr hidden noundef i64 @_ZNK3nla13factorization4sizeEv(ptr noundef nonnull align 8 dereferenceable(16) %0) #6 comdat align 2 {
  %2 = alloca ptr, align 8
  store ptr %0, ptr %2, align 8, !tbaa !79
  %3 = load ptr, ptr %2, align 8
  %4 = getelementptr inbounds nuw %"class.nla::factorization", ptr %3, i32 0, i32 0
  %5 = call noundef i32 @_ZNK6vectorIN3nla6factorELb0EjE4sizeEv(ptr noundef nonnull align 8 dereferenceable(8) %4)
  %6 = zext i32 %5 to i64
  ret i64 %6
}

; Function Attrs: mustprogress nounwind uwtable
define linkonce_odr hidden noundef nonnull align 8 dereferenceable(4736) ptr @_ZN3nla6common1_Ev(ptr noundef nonnull align 8 dereferenceable(184) %0) #4 comdat align 2 {
  %2 = alloca ptr, align 8
  store ptr %0, ptr %2, align 8, !tbaa !22
  %3 = load ptr, ptr %2, align 8
  %4 = getelementptr inbounds nuw %"struct.nla::common", ptr %3, i32 0, i32 0
  %5 = load ptr, ptr %4, align 8, !tbaa !24
  ret ptr %5
}

; Function Attrs: mustprogress uwtable
define hidden void @_ZN3nla5order20order_lemma_on_monicERKNS_5monicE(ptr noundef nonnull align 8 dereferenceable(184) %0, ptr noundef nonnull align 8 dereferenceable(34) %1) #6 align 2 personality ptr @__gxx_personality_v0 {
  %3 = alloca ptr, align 8
  %4 = alloca ptr, align 8
  %5 = alloca ptr, align 8
  %6 = alloca %"struct.nla::factorization_factory_imp", align 8
  %7 = alloca %"struct.nla::const_iterator_mon", align 8
  %8 = alloca ptr, align 8
  %9 = alloca i32, align 4
  %10 = alloca %"struct.nla::const_iterator_mon", align 8
  %11 = alloca i32, align 4
  %12 = alloca %"class.nla::factorization", align 8
  %13 = alloca %"struct.nla::const_iterator_mon", align 8
  store ptr %0, ptr %3, align 8, !tbaa !16
  store ptr %1, ptr %4, align 8, !tbaa !63
  %14 = load ptr, ptr %3, align 8
  call void @llvm.lifetime.start.p0(i64 8, ptr %5) #3
  call void @llvm.lifetime.start.p0(i64 48, ptr %6) #3
  %15 = load ptr, ptr %4, align 8, !tbaa !63
  %16 = call noundef nonnull align 8 dereferenceable(4736) ptr @_ZN3nla6common1_Ev(ptr noundef nonnull align 8 dereferenceable(184) %14)
  call void @_ZN3nla25factorization_factory_impC1ERKNS_5monicERKNS_4coreE(ptr noundef nonnull align 8 dereferenceable(48) %6, ptr noundef nonnull align 8 dereferenceable(34) %15, ptr noundef nonnull align 8 dereferenceable(4736) %16)
  store ptr %6, ptr %5, align 8, !tbaa !65
  call void @llvm.lifetime.start.p0(i64 24, ptr %7) #3
  %17 = load ptr, ptr %5, align 8, !tbaa !65
  invoke void @_ZNK3nla21factorization_factory5beginEv(ptr dead_on_unwind writable sret(%"struct.nla::const_iterator_mon") align 8 %7, ptr noundef nonnull align 8 dereferenceable(24) %17)
          to label %18 unwind label %25

18:                                               ; preds = %2
  call void @llvm.lifetime.start.p0(i64 24, ptr %10) #3
  %19 = load ptr, ptr %5, align 8, !tbaa !65
  invoke void @_ZNK3nla21factorization_factory3endEv(ptr dead_on_unwind writable sret(%"struct.nla::const_iterator_mon") align 8 %10, ptr noundef nonnull align 8 dereferenceable(24) %19)
          to label %20 unwind label %29

20:                                               ; preds = %18
  br label %21

21:                                               ; preds = %70, %20
  %22 = invoke noundef zeroext i1 @_ZNK3nla18const_iterator_monneERKS0_(ptr noundef nonnull align 8 dereferenceable(24) %7, ptr noundef nonnull align 8 dereferenceable(24) %10)
          to label %23 unwind label %33

23:                                               ; preds = %21
  br i1 %22, label %37, label %24

24:                                               ; preds = %23
  store i32 2, ptr %11, align 4
  br label %72

25:                                               ; preds = %2
  %26 = landingpad { ptr, i32 }
          cleanup
  %27 = extractvalue { ptr, i32 } %26, 0
  store ptr %27, ptr %8, align 8
  %28 = extractvalue { ptr, i32 } %26, 1
  store i32 %28, ptr %9, align 4
  br label %75

29:                                               ; preds = %18
  %30 = landingpad { ptr, i32 }
          cleanup
  %31 = extractvalue { ptr, i32 } %30, 0
  store ptr %31, ptr %8, align 8
  %32 = extractvalue { ptr, i32 } %30, 1
  store i32 %32, ptr %9, align 4
  br label %74

33:                                               ; preds = %69, %21
  %34 = landingpad { ptr, i32 }
          cleanup
  %35 = extractvalue { ptr, i32 } %34, 0
  store ptr %35, ptr %8, align 8
  %36 = extractvalue { ptr, i32 } %34, 1
  store i32 %36, ptr %9, align 4
  br label %73

37:                                               ; preds = %23
  call void @llvm.lifetime.start.p0(i64 16, ptr %12) #3
  invoke void @_ZNK3nla18const_iterator_mondeEv(ptr dead_on_unwind writable sret(%"class.nla::factorization") align 8 %12, ptr noundef nonnull align 8 dereferenceable(24) %7)
          to label %38 unwind label %43

38:                                               ; preds = %37
  %39 = invoke noundef i64 @_ZNK3nla13factorization4sizeEv(ptr noundef nonnull align 8 dereferenceable(16) %12)
          to label %40 unwind label %47

40:                                               ; preds = %38
  %41 = icmp ne i64 %39, 2
  br i1 %41, label %42, label %51

42:                                               ; preds = %40
  store i32 3, ptr %11, align 4
  br label %66

43:                                               ; preds = %37
  %44 = landingpad { ptr, i32 }
          cleanup
  %45 = extractvalue { ptr, i32 } %44, 0
  store ptr %45, ptr %8, align 8
  %46 = extractvalue { ptr, i32 } %44, 1
  store i32 %46, ptr %9, align 4
  br label %71

47:                                               ; preds = %61, %58, %56, %54, %51, %38
  %48 = landingpad { ptr, i32 }
          cleanup
  %49 = extractvalue { ptr, i32 } %48, 0
  store ptr %49, ptr %8, align 8
  %50 = extractvalue { ptr, i32 } %48, 1
  store i32 %50, ptr %9, align 4
  call void @_ZN3nla13factorizationD2Ev(ptr noundef nonnull align 8 dereferenceable(16) %12) #3
  br label %71

51:                                               ; preds = %40
  %52 = invoke noundef zeroext i1 @_ZNK3nla13factorization6is_monEv(ptr noundef nonnull align 8 dereferenceable(16) %12)
          to label %53 unwind label %47

53:                                               ; preds = %51
  br i1 %52, label %54, label %58

54:                                               ; preds = %53
  %55 = invoke noundef nonnull align 8 dereferenceable(34) ptr @_ZNK3nla13factorization3monEv(ptr noundef nonnull align 8 dereferenceable(16) %12)
          to label %56 unwind label %47

56:                                               ; preds = %54
  invoke void @_ZN3nla5order23order_lemma_on_binomialERKNS_5monicE(ptr noundef nonnull align 8 dereferenceable(184) %14, ptr noundef nonnull align 8 dereferenceable(34) %55)
          to label %57 unwind label %47

57:                                               ; preds = %56
  br label %61

58:                                               ; preds = %53
  %59 = load ptr, ptr %4, align 8, !tbaa !63
  invoke void @_ZN3nla5order28order_lemma_on_factorizationERKNS_5monicERKNS_13factorizationE(ptr noundef nonnull align 8 dereferenceable(184) %14, ptr noundef nonnull align 8 dereferenceable(34) %59, ptr noundef nonnull align 8 dereferenceable(16) %12)
          to label %60 unwind label %47

60:                                               ; preds = %58
  br label %61

61:                                               ; preds = %60, %57
  %62 = invoke noundef zeroext i1 @_ZNK3nla6common4doneEv(ptr noundef nonnull align 8 dereferenceable(184) %14)
          to label %63 unwind label %47

63:                                               ; preds = %61
  br i1 %62, label %64, label %65

64:                                               ; preds = %63
  store i32 2, ptr %11, align 4
  br label %66

65:                                               ; preds = %63
  store i32 0, ptr %11, align 4
  br label %66

66:                                               ; preds = %65, %64, %42
  call void @_ZN3nla13factorizationD2Ev(ptr noundef nonnull align 8 dereferenceable(16) %12) #3
  call void @llvm.lifetime.end.p0(i64 16, ptr %12) #3
  %67 = load i32, ptr %11, align 4
  switch i32 %67, label %72 [
    i32 0, label %68
    i32 3, label %69
  ]

68:                                               ; preds = %66
  br label %69

69:                                               ; preds = %68, %66
  invoke void @_ZN3nla18const_iterator_monppEv(ptr dead_on_unwind writable sret(%"struct.nla::const_iterator_mon") align 8 %13, ptr noundef nonnull align 8 dereferenceable(24) %7)
          to label %70 unwind label %33

70:                                               ; preds = %69
  call void @_ZN3nla18const_iterator_monD2Ev(ptr noundef nonnull align 8 dereferenceable(24) %13) #3
  br label %21

71:                                               ; preds = %47, %43
  call void @llvm.lifetime.end.p0(i64 16, ptr %12) #3
  br label %73

72:                                               ; preds = %66, %24
  call void @_ZN3nla18const_iterator_monD2Ev(ptr noundef nonnull align 8 dereferenceable(24) %10) #3
  call void @llvm.lifetime.end.p0(i64 24, ptr %10) #3
  call void @_ZN3nla18const_iterator_monD2Ev(ptr noundef nonnull align 8 dereferenceable(24) %7) #3
  call void @llvm.lifetime.end.p0(i64 24, ptr %7) #3
  call void @_ZN3nla21factorization_factoryD2Ev(ptr noundef nonnull align 8 dereferenceable(48) %6) #3
  call void @llvm.lifetime.end.p0(i64 48, ptr %6) #3
  call void @llvm.lifetime.end.p0(i64 8, ptr %5) #3
  br label %76

73:                                               ; preds = %71, %33
  call void @_ZN3nla18const_iterator_monD2Ev(ptr noundef nonnull align 8 dereferenceable(24) %10) #3
  br label %74

74:                                               ; preds = %73, %29
  call void @llvm.lifetime.end.p0(i64 24, ptr %10) #3
  call void @_ZN3nla18const_iterator_monD2Ev(ptr noundef nonnull align 8 dereferenceable(24) %7) #3
  br label %75

75:                                               ; preds = %74, %25
  call void @llvm.lifetime.end.p0(i64 24, ptr %7) #3
  call void @_ZN3nla21factorization_factoryD2Ev(ptr noundef nonnull align 8 dereferenceable(48) %6) #3
  call void @llvm.lifetime.end.p0(i64 48, ptr %6) #3
  call void @llvm.lifetime.end.p0(i64 8, ptr %5) #3
  br label %77

76:                                               ; preds = %72
  ret void

77:                                               ; preds = %75
  %78 = load ptr, ptr %8, align 8
  %79 = load i32, ptr %9, align 4
  %80 = insertvalue { ptr, i32 } poison, ptr %78, 0
  %81 = insertvalue { ptr, i32 } %80, i32 %79, 1
  resume { ptr, i32 } %81
}