; Function Attrs: mustprogress uwtable
define hidden void @_ZN3nla5order20order_lemma_on_monicERKNS_5monicE(ptr noundef nonnull align 8 dereferenceable(184) %0, ptr noundef nonnull align 8 dereferenceable(34) %1) local_unnamed_addr #4 align 2 personality ptr @__gxx_personality_v0 {
  %3 = alloca %"struct.nla::factorization_factory_imp", align 8
  %4 = alloca %"struct.nla::const_iterator_mon", align 8
  %5 = alloca %"struct.nla::const_iterator_mon", align 8
  %6 = alloca %"class.nla::factorization", align 8
  %7 = alloca %"struct.nla::const_iterator_mon", align 8
  call void @llvm.lifetime.start.p0(i64 48, ptr nonnull %3) #20
  %8 = load ptr, ptr %0, align 8, !tbaa !3
  call void @_ZN3nla25factorization_factory_impC1ERKNS_5monicERKNS_4coreE(ptr noundef nonnull align 8 dereferenceable(48) %3, ptr noundef nonnull align 8 dereferenceable(34) %1, ptr noundef nonnull align 8 dereferenceable(4736) %8)
  call void @llvm.lifetime.start.p0(i64 24, ptr nonnull %4) #20
  call void @_ZNK3nla21factorization_factory5beginEv(ptr dead_on_unwind nonnull writable sret(%"struct.nla::const_iterator_mon") align 8 %4, ptr noundef nonnull align 8 dereferenceable(24) %3)
  call void @llvm.lifetime.start.p0(i64 24, ptr nonnull %5) #20
  invoke void @_ZNK3nla21factorization_factory3endEv(ptr dead_on_unwind nonnull writable sret(%"struct.nla::const_iterator_mon") align 8 %5, ptr noundef nonnull align 8 dereferenceable(24) %3)
          to label %.preheader unwind label %12

.preheader:                                       ; preds = %2
  %9 = getelementptr inbounds nuw i8, ptr %6, i64 8
  br label %_ZN3nla18const_iterator_monD2Ev.exit

_ZN3nla18const_iterator_monD2Ev.exit:             ; preds = %_ZN3nla18const_iterator_monD2Ev.exit.backedge, %.preheader
  %10 = invoke noundef zeroext i1 @_ZNK3nla18const_iterator_monneERKS0_(ptr noundef nonnull align 8 dereferenceable(24) %4, ptr noundef nonnull align 8 dereferenceable(24) %5)
          to label %11 unwind label %14

11:                                               ; preds = %_ZN3nla18const_iterator_monD2Ev.exit
  br i1 %10, label %16, label %46

12:                                               ; preds = %2
  %13 = landingpad { ptr, i32 }
          cleanup
  br label %60

14:                                               ; preds = %37, %_ZN3nla18const_iterator_monD2Ev.exit
  %15 = landingpad { ptr, i32 }
          cleanup
  br label %59

16:                                               ; preds = %11
  call void @llvm.lifetime.start.p0(i64 16, ptr nonnull %6) #20
  invoke void @_ZNK3nla18const_iterator_mondeEv(ptr dead_on_unwind nonnull writable sret(%"class.nla::factorization") align 8 %6, ptr noundef nonnull align 8 dereferenceable(24) %4)
          to label %17 unwind label %22

17:                                               ; preds = %16
  %18 = load ptr, ptr %6, align 8, !tbaa !50
  %19 = icmp eq ptr %18, null
  br i1 %19, label %_ZN3nla13factorizationD2Ev.exit.thread, label %_ZNK3nla13factorization4sizeEv.exit

_ZN3nla13factorizationD2Ev.exit.thread:           ; preds = %17
  call void @llvm.lifetime.end.p0(i64 16, ptr nonnull %6) #20
  br label %37

_ZNK3nla13factorization4sizeEv.exit:              ; preds = %17
  %20 = getelementptr inbounds i8, ptr %18, i64 -4
  %21 = load i32, ptr %20, align 4, !tbaa !44
  %.not = icmp eq i32 %21, 2
  br i1 %.not, label %26, label %.thread

22:                                               ; preds = %16
  %23 = landingpad { ptr, i32 }
          cleanup
  br label %45

24:                                               ; preds = %30, %29, %28
  %25 = landingpad { ptr, i32 }
          cleanup
  call void @_ZN3nla13factorizationD2Ev(ptr noundef nonnull align 8 dereferenceable(16) %6) #20
  br label %45

26:                                               ; preds = %_ZNK3nla13factorization4sizeEv.exit
  %27 = load ptr, ptr %9, align 8, !tbaa !53
  %.not28 = icmp eq ptr %27, null
  br i1 %.not28, label %29, label %28

28:                                               ; preds = %26
  invoke void @_ZN3nla5order23order_lemma_on_binomialERKNS_5monicE(ptr noundef nonnull align 8 dereferenceable(184) %0, ptr noundef nonnull align 8 dereferenceable(34) %27)
          to label %30 unwind label %24

29:                                               ; preds = %26
  invoke void @_ZN3nla5order28order_lemma_on_factorizationERKNS_5monicERKNS_13factorizationE(ptr noundef nonnull align 8 dereferenceable(184) %0, ptr noundef nonnull align 8 dereferenceable(34) %1, ptr noundef nonnull align 8 dereferenceable(16) %6)
          to label %30 unwind label %24

30:                                               ; preds = %29, %28
  %31 = invoke noundef zeroext i1 @_ZNK3nla6common4doneEv(ptr noundef nonnull align 8 dereferenceable(184) %0)
          to label %32 unwind label %24

32:                                               ; preds = %30
  %. = select i1 %31, i32 2, i32 0
  %.pr.pre = load ptr, ptr %6, align 8, !tbaa !50
  %.not.i.i.i = icmp eq ptr %.pr.pre, null
  br i1 %.not.i.i.i, label %_ZN3nla13factorizationD2Ev.exit, label %.thread

.thread:                                          ; preds = %_ZNK3nla13factorization4sizeEv.exit, %32
  %.0.ph34 = phi i32 [ %., %32 ], [ 3, %_ZNK3nla13factorization4sizeEv.exit ]
  %.pr33 = phi ptr [ %.pr.pre, %32 ], [ %18, %_ZNK3nla13factorization4sizeEv.exit ]
  %33 = getelementptr inbounds i8, ptr %.pr33, i64 -8
  invoke void @_ZN6memory10deallocateEPv(ptr noundef nonnull %33)
          to label %_ZN3nla13factorizationD2Ev.exit unwind label %34

34:                                               ; preds = %.thread
  %35 = landingpad { ptr, i32 }
          catch ptr null
  %36 = extractvalue { ptr, i32 } %35, 0
  call void @__clang_call_terminate(ptr %36) #21
  unreachable

_ZN3nla13factorizationD2Ev.exit:                  ; preds = %32, %.thread
  %.0.ph35 = phi i32 [ %., %32 ], [ %.0.ph34, %.thread ]
  call void @llvm.lifetime.end.p0(i64 16, ptr nonnull %6) #20
  switch i32 %.0.ph35, label %46 [
    i32 0, label %37
    i32 3, label %37
  ]

37:                                               ; preds = %_ZN3nla13factorizationD2Ev.exit.thread, %_ZN3nla13factorizationD2Ev.exit, %_ZN3nla13factorizationD2Ev.exit
  invoke void @_ZN3nla18const_iterator_monppEv(ptr dead_on_unwind nonnull writable sret(%"struct.nla::const_iterator_mon") align 8 %7, ptr noundef nonnull align 8 dereferenceable(24) %4)
          to label %38 unwind label %14

38:                                               ; preds = %37
  %39 = load ptr, ptr %7, align 8, !tbaa !56
  %.not.i.i.i17 = icmp eq ptr %39, null
  br i1 %.not.i.i.i17, label %_ZN3nla18const_iterator_monD2Ev.exit.backedge, label %40

_ZN3nla18const_iterator_monD2Ev.exit.backedge:    ; preds = %38, %40
  br label %_ZN3nla18const_iterator_monD2Ev.exit

40:                                               ; preds = %38
  %41 = getelementptr inbounds i8, ptr %39, i64 -8
  invoke void @_ZN6memory10deallocateEPv(ptr noundef nonnull %41)
          to label %_ZN3nla18const_iterator_monD2Ev.exit.backedge unwind label %42

42:                                               ; preds = %40
  %43 = landingpad { ptr, i32 }
          catch ptr null
  %44 = extractvalue { ptr, i32 } %43, 0
  call void @__clang_call_terminate(ptr %44) #21
  unreachable

45:                                               ; preds = %24, %22
  %.pn = phi { ptr, i32 } [ %25, %24 ], [ %23, %22 ]
  call void @llvm.lifetime.end.p0(i64 16, ptr nonnull %6) #20
  br label %59

46:                                               ; preds = %11, %_ZN3nla13factorizationD2Ev.exit
  %47 = load ptr, ptr %5, align 8, !tbaa !56
  %.not.i.i.i18 = icmp eq ptr %47, null
  br i1 %.not.i.i.i18, label %_ZN3nla18const_iterator_monD2Ev.exit19, label %48

48:                                               ; preds = %46
  %49 = getelementptr inbounds i8, ptr %47, i64 -8
  invoke void @_ZN6memory10deallocateEPv(ptr noundef nonnull %49)
          to label %_ZN3nla18const_iterator_monD2Ev.exit19 unwind label %50

50:                                               ; preds = %48
  %51 = landingpad { ptr, i32 }
          catch ptr null
  %52 = extractvalue { ptr, i32 } %51, 0
  call void @__clang_call_terminate(ptr %52) #21
  unreachable

_ZN3nla18const_iterator_monD2Ev.exit19:           ; preds = %46, %48
  call void @llvm.lifetime.end.p0(i64 24, ptr nonnull %5) #20
  %53 = load ptr, ptr %4, align 8, !tbaa !56
  %.not.i.i.i20 = icmp eq ptr %53, null
  br i1 %.not.i.i.i20, label %_ZN3nla18const_iterator_monD2Ev.exit21, label %54

54:                                               ; preds = %_ZN3nla18const_iterator_monD2Ev.exit19
  %55 = getelementptr inbounds i8, ptr %53, i64 -8
  invoke void @_ZN6memory10deallocateEPv(ptr noundef nonnull %55)
          to label %_ZN3nla18const_iterator_monD2Ev.exit21 unwind label %56

56:                                               ; preds = %54
  %57 = landingpad { ptr, i32 }
          catch ptr null
  %58 = extractvalue { ptr, i32 } %57, 0
  call void @__clang_call_terminate(ptr %58) #21
  unreachable

_ZN3nla18const_iterator_monD2Ev.exit21:           ; preds = %_ZN3nla18const_iterator_monD2Ev.exit19, %54
  call void @llvm.lifetime.end.p0(i64 24, ptr nonnull %4) #20
  call void @llvm.lifetime.end.p0(i64 48, ptr nonnull %3) #20
  ret void

59:                                               ; preds = %45, %14
  %.pn13 = phi { ptr, i32 } [ %15, %14 ], [ %.pn, %45 ]
  call void @_ZN3nla18const_iterator_monD2Ev(ptr noundef nonnull align 8 dereferenceable(24) %5) #20
  br label %60

60:                                               ; preds = %59, %12
  %.pn13.pn = phi { ptr, i32 } [ %.pn13, %59 ], [ %13, %12 ]
  call void @llvm.lifetime.end.p0(i64 24, ptr nonnull %5) #20
  call void @_ZN3nla18const_iterator_monD2Ev(ptr noundef nonnull align 8 dereferenceable(24) %4) #20
  call void @llvm.lifetime.end.p0(i64 24, ptr nonnull %4) #20
  call void @llvm.lifetime.end.p0(i64 48, ptr nonnull %3) #20
  resume { ptr, i32 } %.pn13.pn
}